target datalayout = "e-m:e-p270:32:32-p271:32:32-p272:64:64-i64:64-i128:128-f80:128-n8:16:32:64-S128"
target triple = "x86_64-pc-linux-gnu"

%struct._php_core_globals = type { i64, i8, i8, i8, i8, i8, i8, i8, i8, ptr, ptr, i64, i64, i64, ptr, ptr, ptr, ptr, ptr, i8, ptr, ptr, ptr, ptr, i64, ptr, ptr, ptr, ptr, ptr, ptr, ptr, %struct._arg_separators, ptr, %struct._zend_array, i16, i8, i8, %struct._zend_llist, [6 x %struct._zval_struct], i8, i8, i8, i8, i8, ptr, ptr, i64, [8 x i8], i8, i8, i8, i8, i8, i8, i32, i32, ptr, ptr, ptr, ptr, i64, i64, ptr, i64, ptr, ptr, i8, i8, i8, i8, i8, i8, i64, ptr, i64, i64 }
%struct._arg_separators = type { ptr, ptr }
%struct._zend_array = type { %struct._zend_refcounted_h, %union.anon.0, i32, %union.anon.1, i32, i32, i32, i32, i64, ptr }
%struct._zend_refcounted_h = type { i32, %union.anon }
%union.anon = type { i32 }
%union.anon.0 = type { i32 }
%union.anon.1 = type { ptr }
%struct._zend_llist = type { ptr, ptr, i64, i64, ptr, i8, ptr }
%struct._zval_struct = type { %union._zend_value, %union.anon.3, %union.anon.6 }
%union._zend_value = type { i64 }
%union.anon.3 = type { i32 }
%union.anon.6 = type { i32 }
%struct._zend_ini_entry = type { ptr, ptr, ptr, ptr, ptr, ptr, ptr, ptr, i32, i8, i8, i8, ptr }

@core_globals = dso_local global %struct._php_core_globals zeroinitializer, align 8
@.str.291 = private unnamed_addr constant [76 x i8] c"Failed to set memory limit to %zd bytes (Current memory usage is %zd bytes)\00", align 1

; Function Attrs: nounwind uwtable
define internal i32 @OnChangeMemoryLimit(ptr noundef %0, ptr noundef %1, ptr noundef %2, ptr noundef %3, ptr noundef %4, i32 noundef %5) #1 {
  %7 = alloca i32, align 4
  %8 = alloca ptr, align 8
  %9 = alloca ptr, align 8
  %10 = alloca ptr, align 8
  %11 = alloca ptr, align 8
  %12 = alloca ptr, align 8
  %13 = alloca i32, align 4
  %14 = alloca i64, align 8
  %15 = alloca i32, align 4
  store ptr %0, ptr %8, align 8, !tbaa !243
  store ptr %1, ptr %9, align 8, !tbaa !54
  store ptr %2, ptr %10, align 8, !tbaa !56
  store ptr %3, ptr %11, align 8, !tbaa !56
  store ptr %4, ptr %12, align 8, !tbaa !56
  store i32 %5, ptr %13, align 4, !tbaa !50
  call void @llvm.lifetime.start.p0(i64 8, ptr %14) #18
  %16 = load ptr, ptr %9, align 8, !tbaa !54
  %17 = icmp ne ptr %16, null
  br i1 %17, label %18, label %24

18:                                               ; preds = %6
  %19 = load ptr, ptr %9, align 8, !tbaa !54
  %20 = load ptr, ptr %8, align 8, !tbaa !243
  %21 = getelementptr inbounds nuw %struct._zend_ini_entry, ptr %20, i32 0, i32 0
  %22 = load ptr, ptr %21, align 8, !tbaa !250
  %23 = call i64 @zend_ini_parse_uquantity_warn(ptr noundef %19, ptr noundef %22)
  store i64 %23, ptr %14, align 8, !tbaa !15
  br label %25

24:                                               ; preds = %6
  store i64 1073741824, ptr %14, align 8, !tbaa !15
  br label %25

25:                                               ; preds = %24, %18
  %26 = load i64, ptr %14, align 8, !tbaa !15
  %27 = call i32 @zend_set_memory_limit(i64 noundef %26)
  %28 = icmp eq i32 %27, -1
  br i1 %28, label %29, label %36

29:                                               ; preds = %25
  %30 = load i32, ptr %13, align 4, !tbaa !50
  %31 = icmp ne i32 %30, 8
  br i1 %31, label %32, label %35

32:                                               ; preds = %29
  %33 = load i64, ptr %14, align 8, !tbaa !15
  %34 = call i64 @zend_memory_usage(i1 noundef zeroext true)
  call void (i32, ptr, ...) @zend_error(i32 noundef 2, ptr noundef @.str.291, i64 noundef %33, i64 noundef %34)
  store i32 -1, ptr %7, align 4
  store i32 1, ptr %15, align 4
  br label %38

35:                                               ; preds = %29
  br label %36

36:                                               ; preds = %35, %25
  %37 = load i64, ptr %14, align 8, !tbaa !15
  store i64 %37, ptr getelementptr inbounds nuw (%struct._php_core_globals, ptr @core_globals, i32 0, i32 12), align 8, !tbaa !156
  store i32 0, ptr %7, align 4
  store i32 1, ptr %15, align 4
  br label %38

38:                                               ; preds = %36, %32
  call void @llvm.lifetime.end.p0(i64 8, ptr %14) #18
  %39 = load i32, ptr %7, align 4
  ret i32 %39
}