; Function Attrs: nounwind uwtable
define internal range(i32 -1, 1) i32 @OnChangeMemoryLimit(ptr noundef readonly captures(none) %0, ptr noundef %1, ptr readnone captures(none) %2, ptr readnone captures(none) %3, ptr readnone captures(none) %4, i32 noundef %5) #2 {
  %.not = icmp eq ptr %1, null
  br i1 %.not, label %10, label %7

7:                                                ; preds = %6
  %8 = load ptr, ptr %0, align 8, !tbaa !218
  %9 = tail call i64 @zend_ini_parse_uquantity_warn(ptr noundef nonnull %1, ptr noundef %8) #28
  br label %10

10:                                               ; preds = %6, %7
  %.0 = phi i64 [ %9, %7 ], [ 1073741824, %6 ]
  %11 = tail call i32 @zend_set_memory_limit(i64 noundef %.0) #28
  %12 = icmp eq i32 %11, -1
  %13 = icmp ne i32 %5, 8
  %or.cond = and i1 %13, %12
  br i1 %or.cond, label %14, label %16

14:                                               ; preds = %10
  %15 = tail call i64 @zend_memory_usage(i1 noundef zeroext true) #28
  tail call void (i32, ptr, ...) @zend_error(i32 noundef 2, ptr noundef nonnull @.str.291, i64 noundef %.0, i64 noundef %15) #28
  br label %17

16:                                               ; preds = %10
  store i64 %.0, ptr getelementptr inbounds nuw (i8, ptr @core_globals, i64 40), align 8, !tbaa !145
  br label %17

17:                                               ; preds = %16, %14
  %.08 = phi i32 [ -1, %14 ], [ 0, %16 ]
  ret i32 %.08
}